target datalayout = "e-m:e-p270:32:32-p271:32:32-p272:64:64-i64:64-i128:128-f80:128-n8:16:32:64-S128"
target triple = "x86_64-pc-linux-gnu"

%"class.std::optional" = type { %"struct.std::_Optional_base" }
%"struct.std::_Optional_base" = type { %"struct.std::_Optional_payload" }
%"struct.std::_Optional_payload" = type { %"struct.std::_Optional_payload_base.base", [7 x i8] }
%"struct.std::_Optional_payload_base.base" = type <{ %"union.std::_Optional_payload_base<llvm::DWARFFormValue>::_Storage", i8 }>
%"union.std::_Optional_payload_base<llvm::DWARFFormValue>::_Storage" = type { %"class.llvm::DWARFFormValue" }
%"class.llvm::DWARFFormValue" = type { i16, i8, %"struct.llvm::DWARFFormValue::ValueType", ptr, ptr }
%"struct.llvm::DWARFFormValue::ValueType" = type { %union.anon, ptr, i64 }
%union.anon = type { i64 }
%"class.llvm::DWARFDie" = type { ptr, ptr }
%"class.llvm::DWARFDebugInfoEntry" = type { i64, i32, i32, ptr }
%"struct.std::_Optional_payload_base" = type <{ %"union.std::_Optional_payload_base<llvm::DWARFFormValue>::_Storage", i8, [7 x i8] }>

; Function Attrs: mustprogress nounwind uwtable
define linkonce_odr hidden void @_ZNSt22_Optional_payload_baseIN4llvm14DWARFFormValueEE8_StorageIS1_Lb1EEC2Ev(ptr noundef nonnull align 8 dereferenceable(48) %0) unnamed_addr #0 comdat align 2 {
  %2 = alloca ptr, align 8
  store ptr %0, ptr %2, align 8
  ret void
}

; Function Attrs: mustprogress nounwind uwtable
define linkonce_odr hidden void @_ZNSt22_Optional_payload_baseIN4llvm14DWARFFormValueEEC2Ev(ptr noundef nonnull align 8 dereferenceable(49) %0) unnamed_addr #0 comdat align 2 {
  %2 = alloca ptr, align 8
  store ptr %0, ptr %2, align 8
  %3 = load ptr, ptr %2, align 8
  %4 = getelementptr inbounds nuw %"struct.std::_Optional_payload_base", ptr %3, i32 0, i32 0
  call void @_ZNSt22_Optional_payload_baseIN4llvm14DWARFFormValueEE8_StorageIS1_Lb1EEC2Ev(ptr noundef nonnull align 8 dereferenceable(48) %4) #13
  %5 = getelementptr inbounds nuw %"struct.std::_Optional_payload_base", ptr %3, i32 0, i32 1
  store i8 0, ptr %5, align 8
  ret void
}

; Function Attrs: mustprogress nounwind uwtable
define linkonce_odr hidden void @_ZNSt17_Optional_payloadIN4llvm14DWARFFormValueELb1ELb1ELb1EEC2Ev(ptr noundef nonnull align 8 dereferenceable(49) %0) unnamed_addr #0 comdat align 2 {
  %2 = alloca ptr, align 8
  store ptr %0, ptr %2, align 8
  %3 = load ptr, ptr %2, align 8
  call void @_ZNSt22_Optional_payload_baseIN4llvm14DWARFFormValueEEC2Ev(ptr noundef nonnull align 8 dereferenceable(49) %3) #13
  ret void
}

; Function Attrs: mustprogress nounwind uwtable
define linkonce_odr hidden noundef nonnull align 8 dereferenceable(48) ptr @_ZNSt22_Optional_payload_baseIN4llvm14DWARFFormValueEE6_M_getEv(ptr noundef nonnull align 8 dereferenceable(49) %0) #0 comdat align 2 {
  %2 = alloca ptr, align 8
  store ptr %0, ptr %2, align 8
  %3 = load ptr, ptr %2, align 8
  %4 = getelementptr inbounds nuw %"struct.std::_Optional_payload_base", ptr %3, i32 0, i32 0
  ret ptr %4
}

; Function Attrs: mustprogress nounwind uwtable
define linkonce_odr hidden noundef i64 @_ZNK4llvm19DWARFDebugInfoEntry9getOffsetEv(ptr noundef nonnull align 8 dereferenceable(24) %0) #0 comdat align 2 {
  %2 = alloca ptr, align 8
  store ptr %0, ptr %2, align 8
  %3 = load ptr, ptr %2, align 8
  %4 = getelementptr inbounds nuw %"class.llvm::DWARFDebugInfoEntry", ptr %3, i32 0, i32 0
  %5 = load i64, ptr %4, align 8
  ret i64 %5
}

; Function Attrs: mustprogress nounwind uwtable
define linkonce_odr hidden noundef ptr @_ZNK4llvm19DWARFDebugInfoEntry29getAbbreviationDeclarationPtrEv(ptr noundef nonnull align 8 dereferenceable(24) %0) #0 comdat align 2 {
  %2 = alloca ptr, align 8
  store ptr %0, ptr %2, align 8
  %3 = load ptr, ptr %2, align 8
  %4 = getelementptr inbounds nuw %"class.llvm::DWARFDebugInfoEntry", ptr %3, i32 0, i32 3
  %5 = load ptr, ptr %4, align 8
  ret ptr %5
}

; Function Attrs: mustprogress nounwind uwtable
define linkonce_odr hidden void @_ZNSt14_Optional_baseIN4llvm14DWARFFormValueELb1ELb1EEC2Ev(ptr noundef nonnull align 8 dereferenceable(56) %0) unnamed_addr #0 comdat align 2 {
  %2 = alloca ptr, align 8
  store ptr %0, ptr %2, align 8
  %3 = load ptr, ptr %2, align 8
  %4 = getelementptr inbounds nuw %"struct.std::_Optional_base", ptr %3, i32 0, i32 0
  call void @_ZNSt17_Optional_payloadIN4llvm14DWARFFormValueELb1ELb1ELb1EEC2Ev(ptr noundef nonnull align 8 dereferenceable(49) %4) #13
  ret void
}

; Function Attrs: mustprogress nounwind uwtable
define linkonce_odr hidden noundef nonnull align 8 dereferenceable(48) ptr @_ZNSt19_Optional_base_implIN4llvm14DWARFFormValueESt14_Optional_baseIS1_Lb1ELb1EEE6_M_getEv(ptr noundef nonnull align 1 dereferenceable(1) %0) #0 comdat align 2 {
  %2 = alloca ptr, align 8
  store ptr %0, ptr %2, align 8
  %3 = load ptr, ptr %2, align 8
  br label %4

4:                                                ; preds = %1
  br label %5

5:                                                ; preds = %4
  %6 = getelementptr inbounds nuw %"struct.std::_Optional_base", ptr %3, i32 0, i32 0
  %7 = call noundef nonnull align 8 dereferenceable(48) ptr @_ZNSt22_Optional_payload_baseIN4llvm14DWARFFormValueEE6_M_getEv(ptr noundef nonnull align 8 dereferenceable(49) %6) #13
  ret ptr %7
}

; Function Attrs: mustprogress nounwind uwtable
define linkonce_odr hidden noundef zeroext i1 @_ZNKSt19_Optional_base_implIN4llvm14DWARFFormValueESt14_Optional_baseIS1_Lb1ELb1EEE13_M_is_engagedEv(ptr noundef nonnull align 1 dereferenceable(1) %0) #0 comdat align 2 {
  %2 = alloca ptr, align 8
  store ptr %0, ptr %2, align 8
  %3 = load ptr, ptr %2, align 8
  %4 = getelementptr inbounds nuw %"struct.std::_Optional_base", ptr %3, i32 0, i32 0
  %5 = getelementptr inbounds nuw %"struct.std::_Optional_payload_base", ptr %4, i32 0, i32 1
  %6 = load i8, ptr %5, align 8
  %7 = trunc i8 %6 to i1
  ret i1 %7
}

; Function Attrs: mustprogress nounwind uwtable
define linkonce_odr hidden noundef i64 @_ZNK4llvm8DWARFDie9getOffsetEv(ptr noundef nonnull align 8 dereferenceable(16) %0) #0 comdat align 2 {
  %2 = alloca ptr, align 8
  store ptr %0, ptr %2, align 8
  %3 = load ptr, ptr %2, align 8
  %4 = getelementptr inbounds nuw %"class.llvm::DWARFDie", ptr %3, i32 0, i32 1
  %5 = load ptr, ptr %4, align 8
  %6 = call noundef i64 @_ZNK4llvm19DWARFDebugInfoEntry9getOffsetEv(ptr noundef nonnull align 8 dereferenceable(24) %5)
  ret i64 %6
}

; Function Attrs: mustprogress nounwind uwtable
define linkonce_odr hidden noundef ptr @_ZNK4llvm8DWARFDie29getAbbreviationDeclarationPtrEv(ptr noundef nonnull align 8 dereferenceable(16) %0) #0 comdat align 2 {
  %2 = alloca ptr, align 8
  store ptr %0, ptr %2, align 8
  %3 = load ptr, ptr %2, align 8
  %4 = getelementptr inbounds nuw %"class.llvm::DWARFDie", ptr %3, i32 0, i32 1
  %5 = load ptr, ptr %4, align 8
  %6 = call noundef ptr @_ZNK4llvm19DWARFDebugInfoEntry29getAbbreviationDeclarationPtrEv(ptr noundef nonnull align 8 dereferenceable(24) %5)
  ret ptr %6
}

; Function Attrs: mustprogress nounwind uwtable
define linkonce_odr hidden void @_ZNSt8optionalIN4llvm14DWARFFormValueEEC2ESt9nullopt_t(ptr noundef nonnull align 8 dereferenceable(56) %0) unnamed_addr #0 comdat align 2 {
  %2 = alloca ptr, align 8
  store ptr %0, ptr %2, align 8
  %3 = load ptr, ptr %2, align 8
  call void @_ZNSt14_Optional_baseIN4llvm14DWARFFormValueELb1ELb1EEC2Ev(ptr noundef nonnull align 8 dereferenceable(56) %3) #13
  ret void
}

; Function Attrs: mustprogress nounwind uwtable
define linkonce_odr hidden noundef zeroext i1 @_ZNK4llvm8DWARFDie7isValidEv(ptr noundef nonnull align 8 dereferenceable(16) %0) #0 comdat align 2 {
  %2 = alloca ptr, align 8
  store ptr %0, ptr %2, align 8
  %3 = load ptr, ptr %2, align 8
  %4 = getelementptr inbounds nuw %"class.llvm::DWARFDie", ptr %3, i32 0, i32 0
  %5 = load ptr, ptr %4, align 8
  %6 = icmp ne ptr %5, null
  br i1 %6, label %7, label %11

7:                                                ; preds = %1
  %8 = getelementptr inbounds nuw %"class.llvm::DWARFDie", ptr %3, i32 0, i32 1
  %9 = load ptr, ptr %8, align 8
  %10 = icmp ne ptr %9, null
  br label %11

11:                                               ; preds = %7, %1
  %12 = phi i1 [ false, %1 ], [ %10, %7 ]
  ret i1 %12
}

; Function Attrs: mustprogress nounwind uwtable
define linkonce_odr hidden void @_ZN4llvm8DWARFDieC2Ev(ptr noundef nonnull align 8 dereferenceable(16) %0) unnamed_addr #0 comdat align 2 {
  %2 = alloca ptr, align 8
  store ptr %0, ptr %2, align 8
  %3 = load ptr, ptr %2, align 8
  %4 = getelementptr inbounds nuw %"class.llvm::DWARFDie", ptr %3, i32 0, i32 0
  store ptr null, ptr %4, align 8
  %5 = getelementptr inbounds nuw %"class.llvm::DWARFDie", ptr %3, i32 0, i32 1
  store ptr null, ptr %5, align 8
  ret void
}

; Function Attrs: mustprogress nounwind uwtable
define linkonce_odr hidden noundef nonnull align 8 dereferenceable(48) ptr @_ZNRSt8optionalIN4llvm14DWARFFormValueEEdeEv(ptr noundef nonnull align 8 dereferenceable(56) %0) #0 comdat align 2 {
  %2 = alloca ptr, align 8
  store ptr %0, ptr %2, align 8
  %3 = load ptr, ptr %2, align 8
  %4 = call noundef nonnull align 8 dereferenceable(48) ptr @_ZNSt19_Optional_base_implIN4llvm14DWARFFormValueESt14_Optional_baseIS1_Lb1ELb1EEE6_M_getEv(ptr noundef nonnull align 1 dereferenceable(1) %3) #13
  ret ptr %4
}

; Function Attrs: mustprogress nounwind uwtable
define linkonce_odr hidden noundef zeroext i1 @_ZNKSt8optionalIN4llvm14DWARFFormValueEEcvbEv(ptr noundef nonnull align 8 dereferenceable(56) %0) #0 comdat align 2 {
  %2 = alloca ptr, align 8
  store ptr %0, ptr %2, align 8
  %3 = load ptr, ptr %2, align 8
  %4 = call noundef zeroext i1 @_ZNKSt19_Optional_base_implIN4llvm14DWARFFormValueESt14_Optional_baseIS1_Lb1ELb1EEE13_M_is_engagedEv(ptr noundef nonnull align 1 dereferenceable(1) %3) #13
  ret i1 %4
}

; Function Attrs: mustprogress nounwind uwtable
define dso_local void @_ZNK4llvm8DWARFDie4findENS_5dwarf9AttributeE(ptr dead_on_unwind noalias writable sret(%"class.std::optional") align 8 %0, ptr noundef nonnull align 8 dereferenceable(16) %1, i16 noundef zeroext %2) #0 align 2 {
  %4 = alloca ptr, align 8
  %5 = alloca i16, align 2
  %6 = alloca ptr, align 8
  store ptr %1, ptr %4, align 8
  store i16 %2, ptr %5, align 2
  %7 = load ptr, ptr %4, align 8
  %8 = call noundef zeroext i1 @_ZNK4llvm8DWARFDie7isValidEv(ptr noundef nonnull align 8 dereferenceable(16) %7)
  br i1 %8, label %10, label %9

9:                                                ; preds = %3
  call void @_ZNSt8optionalIN4llvm14DWARFFormValueEEC2ESt9nullopt_t(ptr noundef nonnull align 8 dereferenceable(56) %0) #13
  br label %21

10:                                               ; preds = %3
  %11 = call noundef ptr @_ZNK4llvm8DWARFDie29getAbbreviationDeclarationPtrEv(ptr noundef nonnull align 8 dereferenceable(16) %7)
  store ptr %11, ptr %6, align 8
  %12 = load ptr, ptr %6, align 8
  %13 = icmp ne ptr %12, null
  br i1 %13, label %14, label %20

14:                                               ; preds = %10
  %15 = load ptr, ptr %6, align 8
  %16 = call noundef i64 @_ZNK4llvm8DWARFDie9getOffsetEv(ptr noundef nonnull align 8 dereferenceable(16) %7)
  %17 = load i16, ptr %5, align 2
  %18 = getelementptr inbounds nuw %"class.llvm::DWARFDie", ptr %7, i32 0, i32 0
  %19 = load ptr, ptr %18, align 8
  call void @_ZNK4llvm28DWARFAbbreviationDeclaration17getAttributeValueEmNS_5dwarf9AttributeERKNS_9DWARFUnitE(ptr dead_on_unwind writable sret(%"class.std::optional") align 8 %0, ptr noundef nonnull align 8 dereferenceable(160) %15, i64 noundef %16, i16 noundef zeroext %17, ptr noundef nonnull align 8 dereferenceable(448) %19)
  br label %21

20:                                               ; preds = %10
  call void @_ZNSt8optionalIN4llvm14DWARFFormValueEEC2ESt9nullopt_t(ptr noundef nonnull align 8 dereferenceable(56) %0) #13
  br label %21

21:                                               ; preds = %20, %14, %9
  ret void
}

; Function Attrs: mustprogress nounwind uwtable
define dso_local { ptr, ptr } @_ZNK4llvm8DWARFDie32getAttributeValueAsReferencedDieENS_5dwarf9AttributeE(ptr noundef nonnull align 8 dereferenceable(16) %0, i16 noundef zeroext %1) #0 align 2 {
  %3 = alloca %"class.llvm::DWARFDie", align 8
  %4 = alloca ptr, align 8
  %5 = alloca i16, align 2
  %6 = alloca %"class.std::optional", align 8
  store ptr %0, ptr %4, align 8
  store i16 %1, ptr %5, align 2
  %7 = load ptr, ptr %4, align 8
  %8 = load i16, ptr %5, align 2
  call void @_ZNK4llvm8DWARFDie4findENS_5dwarf9AttributeE(ptr dead_on_unwind writable sret(%"class.std::optional") align 8 %6, ptr noundef nonnull align 8 dereferenceable(16) %7, i16 noundef zeroext %8)
  %9 = call noundef zeroext i1 @_ZNKSt8optionalIN4llvm14DWARFFormValueEEcvbEv(ptr noundef nonnull align 8 dereferenceable(56) %6) #13
  br i1 %9, label %10, label %17

10:                                               ; preds = %2
  %11 = call noundef nonnull align 8 dereferenceable(48) ptr @_ZNRSt8optionalIN4llvm14DWARFFormValueEEdeEv(ptr noundef nonnull align 8 dereferenceable(56) %6) #13
  %12 = call { ptr, ptr } @_ZNK4llvm8DWARFDie32getAttributeValueAsReferencedDieERKNS_14DWARFFormValueE(ptr noundef nonnull align 8 dereferenceable(16) %7, ptr noundef nonnull align 8 dereferenceable(48) %11)
  %13 = getelementptr inbounds nuw { ptr, ptr }, ptr %3, i32 0, i32 0
  %14 = extractvalue { ptr, ptr } %12, 0
  store ptr %14, ptr %13, align 8
  %15 = getelementptr inbounds nuw { ptr, ptr }, ptr %3, i32 0, i32 1
  %16 = extractvalue { ptr, ptr } %12, 1
  store ptr %16, ptr %15, align 8
  br label %18

17:                                               ; preds = %2
  call void @llvm.memset.p0.i64(ptr align 8 %3, i8 0, i64 16, i1 false)
  call void @_ZN4llvm8DWARFDieC2Ev(ptr noundef nonnull align 8 dereferenceable(16) %3) #13
  br label %18

18:                                               ; preds = %17, %10
  %19 = load { ptr, ptr }, ptr %3, align 8
  ret { ptr, ptr } %19
}