; Function Attrs: mustprogress nounwind uwtable
define dso_local { ptr, ptr } @_ZNK4llvm8DWARFDie32getAttributeValueAsReferencedDieENS_5dwarf9AttributeE(ptr noundef nonnull readonly align 8 captures(none) dereferenceable(16) %0, i16 noundef zeroext %1) local_unnamed_addr #0 align 2 {
  %3 = alloca %"class.std::optional", align 8
  %4 = load ptr, ptr %0, align 8, !noalias !20
  %.not.i.i = icmp ne ptr %4, null
  %5 = getelementptr inbounds nuw i8, ptr %0, i64 8
  %6 = load ptr, ptr %5, align 8, !noalias !20
  %7 = icmp ne ptr %6, null
  %8 = select i1 %.not.i.i, i1 %7, i1 false
  br i1 %8, label %9, label %_ZNK4llvm8DWARFDie4findENS_5dwarf9AttributeE.exit.thread

9:                                                ; preds = %2
  %10 = getelementptr inbounds nuw i8, ptr %6, i64 16
  %11 = load ptr, ptr %10, align 8, !noalias !20
  %.not.i = icmp eq ptr %11, null
  br i1 %.not.i, label %_ZNK4llvm8DWARFDie4findENS_5dwarf9AttributeE.exit.thread, label %_ZNK4llvm8DWARFDie4findENS_5dwarf9AttributeE.exit

_ZNK4llvm8DWARFDie4findENS_5dwarf9AttributeE.exit: ; preds = %9
  %12 = load i64, ptr %6, align 8, !noalias !20
  call void @_ZNK4llvm28DWARFAbbreviationDeclaration17getAttributeValueEmNS_5dwarf9AttributeERKNS_9DWARFUnitE(ptr dead_on_unwind nonnull writable sret(%"class.std::optional") align 8 %3, ptr noundef nonnull align 8 dereferenceable(160) %11, i64 noundef %12, i16 noundef zeroext %1, ptr noundef nonnull align 8 dereferenceable(448) %4) #19
  %.phi.trans.insert = getelementptr inbounds nuw i8, ptr %3, i64 48
  %.pre = load i8, ptr %.phi.trans.insert, align 8
  %13 = trunc i8 %.pre to i1
  br i1 %13, label %14, label %_ZNK4llvm8DWARFDie4findENS_5dwarf9AttributeE.exit.thread

14:                                               ; preds = %_ZNK4llvm8DWARFDie4findENS_5dwarf9AttributeE.exit
  %15 = call { ptr, ptr } @_ZNK4llvm8DWARFDie32getAttributeValueAsReferencedDieERKNS_14DWARFFormValueE(ptr noundef nonnull align 8 dereferenceable(16) %0, ptr noundef nonnull align 8 dereferenceable(48) %3)
  %16 = extractvalue { ptr, ptr } %15, 0
  %17 = extractvalue { ptr, ptr } %15, 1
  br label %_ZNK4llvm8DWARFDie4findENS_5dwarf9AttributeE.exit.thread

_ZNK4llvm8DWARFDie4findENS_5dwarf9AttributeE.exit.thread: ; preds = %9, %2, %_ZNK4llvm8DWARFDie4findENS_5dwarf9AttributeE.exit, %14
  %.sroa.0.0 = phi ptr [ %16, %14 ], [ null, %_ZNK4llvm8DWARFDie4findENS_5dwarf9AttributeE.exit ], [ null, %2 ], [ null, %9 ]
  %.sroa.4.0 = phi ptr [ %17, %14 ], [ null, %_ZNK4llvm8DWARFDie4findENS_5dwarf9AttributeE.exit ], [ null, %2 ], [ null, %9 ]
  %.fca.0.insert = insertvalue { ptr, ptr } poison, ptr %.sroa.0.0, 0
  %.fca.1.insert = insertvalue { ptr, ptr } %.fca.0.insert, ptr %.sroa.4.0, 1
  ret { ptr, ptr } %.fca.1.insert
}